target datalayout = "e-m:e-p270:32:32-p271:32:32-p272:64:64-i64:64-i128:128-f80:128-n8:16:32:64-S128"
target triple = "x86_64-pc-linux-gnu"

%"class.zxing::qrcode::FinderPattern" = type { %"class.zxing::ResultPoint.base", float, i32, float, i32, i32 }
%"class.zxing::ResultPoint.base" = type { %"class.zxing::Counted.base", float, float }
%"class.zxing::Counted.base" = type <{ ptr, i32 }>

; Function Attrs: mustprogress uwtable
define hidden void @_ZN5zxing6qrcode13FinderPatternC2Efffi(ptr noundef nonnull align 8 dereferenceable(40) %0, float noundef %1, float noundef %2, float noundef %3, i32 noundef %4) unnamed_addr #0 align 2 {
  %6 = alloca ptr, align 8
  %7 = alloca float, align 4
  %8 = alloca float, align 4
  %9 = alloca float, align 4
  %10 = alloca i32, align 4
  store ptr %0, ptr %6, align 8, !tbaa !3
  store float %1, ptr %7, align 4, !tbaa !8
  store float %2, ptr %8, align 4, !tbaa !8
  store float %3, ptr %9, align 4, !tbaa !8
  store i32 %4, ptr %10, align 4, !tbaa !22
  %11 = load ptr, ptr %6, align 8
  %12 = load float, ptr %7, align 4, !tbaa !8
  %13 = load float, ptr %8, align 4, !tbaa !8
  call void @_ZN5zxing11ResultPointC2Eff(ptr noundef nonnull align 8 dereferenceable(20) %11, float noundef %12, float noundef %13)
  store ptr getelementptr inbounds inrange(-16, 48) ({ [8 x ptr] }, ptr @_ZTVN5zxing6qrcode13FinderPatternE, i32 0, i32 0, i32 2), ptr %11, align 8, !tbaa !10
  %14 = getelementptr inbounds nuw %"class.zxing::qrcode::FinderPattern", ptr %11, i32 0, i32 1
  %15 = load float, ptr %9, align 4, !tbaa !8
  store float %15, ptr %14, align 4, !tbaa !12
  %16 = getelementptr inbounds nuw %"class.zxing::qrcode::FinderPattern", ptr %11, i32 0, i32 2
  %17 = load i32, ptr %10, align 4, !tbaa !22
  store i32 %17, ptr %16, align 8, !tbaa !18
  %18 = getelementptr inbounds nuw %"class.zxing::qrcode::FinderPattern", ptr %11, i32 0, i32 4
  store i32 0, ptr %18, align 8, !tbaa !19
  %19 = getelementptr inbounds nuw %"class.zxing::qrcode::FinderPattern", ptr %11, i32 0, i32 5
  store i32 3, ptr %19, align 4, !tbaa !20
  %20 = getelementptr inbounds nuw %"class.zxing::qrcode::FinderPattern", ptr %11, i32 0, i32 3
  store float -1.000000e+00, ptr %20, align 4, !tbaa !21
  ret void
}